(dp0
V1
p1
(lp2
Vpm
p3
aVrichard
p4
aVburchfield
p5
aVphillip
p6
aVissues
p7
aVlist
p8
aVgo
p9
aVforward
p10
aVdocumenting
p11
aVrequirements
p12
aVconsolidated
p13
aVphysical
p14
aVfinancial
p15
aVpositions
p16
aVtransport
p17
aVtrade
p18
aVcapture
p19
aVneed
p20
aVfocus
p21
aVfirst
p22
aVbullet
p23
aVallan
p24
aVsingle
p25
aVset
p26
aValthough
p27
aVmeeting
p28
aVkeith
p29
aVwednesday
p30
aVinformative
p31
aVsolution
p32
aVcreating
p33
aVinfinitely
p34
aVdynamic
p35
aVposition
p36
aVscreen
p37
aVextremely
p38
aVdifficult
p39
aVtime
p40
aVconsuming
p41
aVthroughout
p42
aValluded
p43
aVinability
p44
aVget
p45
aVconsensus
p46
aVamongst
p47
aVtraders
p48
aVpresentation
p49
aVmake
p50
aVtrader
p51
aVarrange
p52
aVliking
p53
aVmuch
p54
aVlike
p55
aVexcel
p56
aVneeds
p57
aVhappen
p58
aVmonday
p59
aVeffort
p60
aVdesign
p61
aVdesired
p62
aVlayout
p63
aVcritical
p64
aVexclude
p65
aVbuilding
p66
aVcapability
p67
aVcreate
p68
aVflexible
p69
aVfuture
p70
aVorder
p71
aVplan
p72
aVmeasured
p73
aVfirm
p74
aValso
p75
aVreiterate
p76
aVgoals
p77
aVproject
p78
aVconsolidate
p79
aVraised
p80
aVprojects
p81
aVprioritised
p82
aVefforts
p83
aVoutside
p84
aVinvolved
p85
aVmeetings
p86
aVdiscussions
p87
aVgood
p88
aVbelieve
p89
aVcommunication
p90
aVteams
p91
aVobjectives
p92
aVsolve
p93
aVseverude
p94
aVkenny
p95
aVinitial
p96
aVregarding
p97
aVthink
p98
aVstill
p99
aVfollowing
p100
aVpoint
p101
aVcontact
p102
aVtrading
p103
aVgroup
p104
aVve
p105
aVthree
p106
aVbrought
p107
aVdifferent
p108
aVreally
p109
aVhelp
p110
aVdrive
p111
aVcome
p112
aVre
p113
aVgetting
p114
aVhit
p115
aVlot
p116
aVrequests
p117
aVmany
p118
aVappear
p119
aVscope
p120
aVconsolidation
p121
aVthings
p122
aVleft
p123
aVmay
p124
aVuseful
p125
aVtry
p126
aVformulate
p127
aVhigh
p128
aVlevel
p129
aVgoal
p130
aVclear
p131
aVpossible
p132
aVtrying
p133
aVaccomplish
p134
aVll
p135
aVdetermine
p136
aVfall
p137
aVwork
p138
aVdefine
p139
aVrelative
p140
aVimportance
p141
aVpriority
p142
aVexact
p143
aVlay
p144
aVmanager
p145
aVmain
p146
aVview
p147
aVdrill
p148
aVdowns
p149
aVuse
p150
aVrequested
p151
aVthus
p152
aVfar
p153
aVparticular
p154
aVinclusion
p155
aVsitara
p156
aVdeals
p157
aVtds
p158
aVdeal
p159
aVticker
p160
aVcustomized
p161
aVrows
p162
aVcolumns
p163
aVad
p164
aVhoc
p165
aVadd
p166
aVexisting
p167
aVnew
p168
aVbreak
p169
aVswaps
p170
aVoptions
p171
aVaddition
p172
aVcurve
p173
aVtab
p174
aVshow
p175
aVreal
p176
aVvalues
p177
aVcurves
p178
aVdesk
p179
aVability
p180
aVsplit
p181
aVcurrent
p182
aVgrid
p183
aVallow
p184
aVdaily
p185
aVshown
p186
aVdirectly
p187
aVmonthly
p188
aVgrouped
p189
aVcolumn
p190
aVtop
p191
aVwould
p192
aVtied
p193
aVbottom
p194
aVproperly
p195
aVshift
p196
aVfloat
p197
aVappropriate
p198
aVgas
p199
aVindex
p200
aVnymex
p201
aVinside
p202
aVferc
p203
aVmid
p204
aVmarket
p205
aVpull
p206
aVvaluation
p207
aVresults
p208
aVbased
p209
aVflag
p210
aVinstead
p211
aVusing
p212
aVofficial
p213
aVvaluations
p214
aVaggregation
p215
aVacross
p216
aVdesks
p217
aVinclude
p218
aVprice
p219
aVbook
p220
aVspread
p221
aVsystems
p222
aVhandle
p223
aVvolatility
p224
aVskew
p225
aVcorrelations
p226
aVrevalue
p227
aVincrementally
p228
aVday
p229
aVapproximate
p230
aVdelta
p231
aVchanges
p232
aVinstantaneous
p233
aVgamma
p234
aVmonths
p235
aVstrike
p236
aVtbd
p237
aVexotic
p238
aVcurrently
p239
aVmanaged
p240
aVspreadsheets
p241
aVisolate
p242
aVchange
p243
aVdue
p244
aVchanged
p245
aVterms
p246
aVprior
p247
aVnet
p248
aVaffect
p249
aVeliminate
p250
aVeconomic
p251
aVimpact
p252
aVindividual
p253
aVtotal
p254
aVcell
p255
aVbenchmark
p256
aVdeployment
p257
aVcanada
p258
aVcurrency
p259
aVvolume
p260
aVuom
p261
aVconversions
p262
aVimplicit
p263
aVexplicit
p264
aVps
p265
aVcolleen
p266
aVsetting
p267
aVtomorrow
p268
aVdiscuss
p269
aVdirection
p270
aVhopefully
p271
aVknow
p272
aVbetter
p273
aVpart
p274
aVstands
p275
asV2
p276
(lp277
Vpm
p278
aVrichard
p279
aVburchfield
p280
aVphillip
p281
aVissues
p282
aVlist
p283
aVgo
p284
aVforward
p285
aVdocumenting
p286
aVrequirements
p287
aVconsolidated
p288
aVphysical
p289
aVfinancial
p290
aVpositions
p291
aVtransport
p292
aVtrade
p293
aVcapture
p294
aVneed
p295
aVfocus
p296
aVfirst
p297
aVbullet
p298
aVallan
p299
aVsingle
p300
aVset
p301
aValthough
p302
aVmeeting
p303
aVkeith
p304
aVwednesday
p305
aVinformative
p306
aVsolution
p307
aVcreating
p308
aVinfinitely
p309
aVdynamic
p310
aVposition
p311
aVscreen
p312
aVextremely
p313
aVdifficult
p314
aVtime
p315
aVconsuming
p316
aVthroughout
p317
aValluded
p318
aVinability
p319
aVget
p320
aVconsensus
p321
aVamongst
p322
aVtraders
p323
aVpresentation
p324
aVmake
p325
aVtrader
p326
aVarrange
p327
aVliking
p328
aVmuch
p329
aVlike
p330
aVexcel
p331
aVneeds
p332
aVhappen
p333
aVmonday
p334
aVeffort
p335
aVdesign
p336
aVdesired
p337
aVlayout
p338
aVcritical
p339
aVexclude
p340
aVbuilding
p341
aVcapability
p342
aVcreate
p343
aVflexible
p344
aVfuture
p345
aVorder
p346
aVplan
p347
aVmeasured
p348
aVfirm
p349
aValso
p350
aVreiterate
p351
aVgoals
p352
aVproject
p353
aVconsolidate
p354
aVraised
p355
aVprojects
p356
aVprioritised
p357
aVefforts
p358
aVoutside
p359
aVinvolved
p360
aVmeetings
p361
aVdiscussions
p362
aVgood
p363
aVbelieve
p364
aVcommunication
p365
aVteams
p366
aVobjectives
p367
aVsolve
p368
aVseverude
p369
aVkenny
p370
aVinitial
p371
aVregarding
p372
aVthink
p373
aVstill
p374
aVfollowing
p375
aVpoint
p376
aVcontact
p377
aVtrading
p378
aVgroup
p379
aVve
p380
aVthree
p381
aVbrought
p382
aVdifferent
p383
aVreally
p384
aVhelp
p385
aVdrive
p386
aVcome
p387
aVre
p388
aVgetting
p389
aVhit
p390
aVlot
p391
aVrequests
p392
aVmany
p393
aVappear
p394
aVscope
p395
aVconsolidation
p396
aVthings
p397
aVleft
p398
aVmay
p399
aVuseful
p400
aVtry
p401
aVformulate
p402
aVhigh
p403
aVlevel
p404
aVgoal
p405
aVclear
p406
aVpossible
p407
aVtrying
p408
aVaccomplish
p409
aVll
p410
aVdetermine
p411
aVfall
p412
aVwork
p413
aVdefine
p414
aVrelative
p415
aVimportance
p416
aVpriority
p417
aVexact
p418
aVlay
p419
aVmanager
p420
aVmain
p421
aVview
p422
aVdrill
p423
aVdowns
p424
aVuse
p425
aVrequested
p426
aVthus
p427
aVfar
p428
aVparticular
p429
aVinclusion
p430
aVsitara
p431
aVdeals
p432
aVtds
p433
aVdeal
p434
aVticker
p435
aVcustomized
p436
aVrows
p437
aVcolumns
p438
aVad
p439
aVhoc
p440
aVadd
p441
aVexisting
p442
aVnew
p443
aVbreak
p444
aVswaps
p445
aVoptions
p446
aVaddition
p447
aVcurve
p448
aVtab
p449
aVshow
p450
aVreal
p451
aVvalues
p452
aVcurves
p453
aVdesk
p454
aVability
p455
aVsplit
p456
aVcurrent
p457
aVgrid
p458
aVallow
p459
aVdaily
p460
aVshown
p461
aVdirectly
p462
aVmonthly
p463
aVgrouped
p464
aVcolumn
p465
aVtop
p466
aVwould
p467
aVtied
p468
aVbottom
p469
aVproperly
p470
aVshift
p471
aVfloat
p472
aVappropriate
p473
aVgas
p474
aVindex
p475
aVnymex
p476
aVinside
p477
aVferc
p478
aVmid
p479
aVmarket
p480
aVpull
p481
aVvaluation
p482
aVresults
p483
aVbased
p484
aVflag
p485
aVinstead
p486
aVusing
p487
aVofficial
p488
aVvaluations
p489
aVaggregation
p490
aVacross
p491
aVdesks
p492
aVinclude
p493
aVprice
p494
aVbook
p495
aVspread
p496
aVsystems
p497
aVhandle
p498
aVvolatility
p499
aVskew
p500
aVcorrelations
p501
aVrevalue
p502
aVincrementally
p503
aVday
p504
aVapproximate
p505
aVdelta
p506
aVchanges
p507
aVinstantaneous
p508
aVgamma
p509
aVmonths
p510
aVstrike
p511
aVtbd
p512
aVexotic
p513
aVcurrently
p514
aVmanaged
p515
aVspreadsheets
p516
aVisolate
p517
aVchange
p518
aVdue
p519
aVchanged
p520
aVterms
p521
aVprior
p522
aVnet
p523
aVaffect
p524
aVeliminate
p525
aVeconomic
p526
aVimpact
p527
aVindividual
p528
aVtotal
p529
aVcell
p530
aVbenchmark
p531
aVdeployment
p532
aVcanada
p533
aVcurrency
p534
aVvolume
p535
aVuom
p536
aVconversions
p537
aVimplicit
p538
aVexplicit
p539
aVps
p540
aVcolleen
p541
aVsetting
p542
aVtomorrow
p543
aVdiscuss
p544
aVdirection
p545
aVhopefully
p546
aVknow
p547
aVbetter
p548
aVpart
p549
aVstands
p550
asV3
p551
(lp552
Vdave
p553
aVnames
p554
aVwest
p555
aVdesk
p556
aVmembers
p557
aVcategory
p558
aVorigination
p559
aVside
p560
aVsparse
p561
aVphillip
p562
asV4
p563
(lp564
Vpaula
p565
aVmillion
p566
aVfine
p567
aVphillip
p568
asV5
p569
(lp570
Vpm
p571
aVenron
p572
aVnorth
p573
aVamerica
p574
aVcorp
p575
aVjohn
p576
aVgrant
p577
aVted
p578
aVvladimir
p579
aVfrank
p580
aVkimberly
p581
aVaraceli
p582
aVplease
p583
aVplan
p584
aVattend
p585
aVmeeting
p586
aVtopic
p587
aVvar
p588
aVreporting
p589
aVresources
p590
aVdate
p591
aVwednesday
p592
aVoctober
p593
aVth
p594
aVtime
p595
aVlocation
p596
aVeb
p597
aVquestions
p598
aVconflicts
p599
aVfeel
p600
aVfree
p601
aVcall
p602
aVthanks
p603
aVrain
p604
asV6
p605
(lp606
Vpm
p607
aVgeorge
p608
aVrichards
p609
aVplease
p610
aVrespond
p611
aVwestgate
p612
aVenclosed
p613
aVdemographics
p614
aVsite
p615
aVinvestor
p616
aValliance
p617
aVsays
p618
aVsimilar
p619
aVpackage
p620
aVsan
p621
aVmarcos
p622
aVreceived
p623
aVearlier
p624
aVquestions
p625
aVinformation
p626
aVrequirements
p627
aVlet
p628
aVknow
p629
aVinterest
p630
aVlevel
p631
aVproject
p632
aVproperty
p633
aVacross
p634
aVstreet
p635
aVsagewood
p636
aVunits
p637
aVsale
p638
aVapproved
p639
aVland
p640
aVselling
p641
aVper
p642
aVsquare
p643
aVfoot
p644
aVone
p645
aVtwo
p646
aVremaining
p647
aVmultifamily
p648
aVparcels
p649
aVwest
p650
aVmoratorium
p651
aVdevelopment
p652
aVseveral
p653
aVnew
p654
aVstudies
p655
aVlooked
p656
aVshow
p657
aVrents
p658
aVduplexes
p659
aVgoing
p660
aVsignificantly
p661
aVhigher
p662
aVroughly
p663
aVleased
p664
aVentire
p665
aVunit
p666
aVmonth
p667
aVlease
p668
aVpsf
p669
aVterm
p670
aVindividual
p671
aVroom
p672
aVbest
p673
aVlocation
p674
aVstudent
p675
aVhousing
p676
aVprojects
p677
aVserious
p678
aVshort
p679
aVwindow
p680
aVopportunity
p681
aVequity
p682
aVrequirement
p683
aVyet
p684
aVknown
p685
aVwould
p686
aVlikely
p687
aVsecure
p688
aVquestion
p689
aVlater
p690
aVtoday
p691
aVsincerely
p692
aVpresident
p693
aVcreekside
p694
aVbuilders
p695
aVllc
p696
aVwinmail
p697
aVdat
p698
asV7
p699
(lp700
Vpm
p701
aVnancy
p702
aVpaul
p703
aVtyrell
p704
aVmeeting
p705
aVtuesday
p706
aVoct
p707
aVth
p708
aVeb
p709
aVregarding
p710
aVstorage
p711
aVstrategies
p712
aVwest
p713
aVplease
p714
aVmark
p715
aVcalendars
p716
aVthank
p717
aVregards
p718
aVhall
p719
aVena
p720
aVdenver
p721
aVoffice
p722
asV8
p723
(lp724
Vbrenda
p725
aVplease
p726
aVuse
p727
aVsecond
p728
aVcheck
p729
aVoctober
p730
aVpayment
p731
aValready
p732
aVtossed
p733
aVlet
p734
aVknow
p735
aVmail
p736
aVanother
p737
aVphillip
p738
asV9
p739
(lp740
Vthink
p741
aVfletch
p742
aVgood
p743
aVcpa
p744
aVstill
p745
asV10
p746
(lp747
Vbrenda
p748
aVplease
p749
aVuse
p750
aVsecond
p751
aVcheck
p752
aVoctober
p753
aVpayment
p754
aVcopy
p755
aVoriginal
p756
aVdeal
p757
aVwant
p758
aVfax
p759
aVphillip
p760
asV11
p761
(lp762
Vtoday
p763
aVcopy
p764
aVbloomberg
p765
aVpower
p766
aVlines
p767
aVadobe
p768
aVacrobat
p769
aVreader
p770
aVrequired
p771
aVview
p772
aVattached
p773
aVpdf
p774
aVfile
p775
aVdownload
p776
aVfree
p777
aVversion
p778
aVhttp
p779
aVwww
p780
aVcom
p781
aVproducts
p782
aVreadstep
p783
aVhtml
p784
aVtrouble
p785
aVdownloading
p786
aValso
p787
aVlocated
p788
aVenergy
p789
aVdaily
p790
aVforget
p791
aVcheck
p792
aVpowermatch
p793
aVwest
p794
aVcoast
p795
aVindices
p796
aVaccurate
p797
aVanywhere
p798
aVindex
p799
aVvalues
p800
aVcalculated
p801
aVactual
p802
aVtra
p803
aVdes
p804
aVaudited
p805
aVcustomers
p806
aVaim
p807
aVbring
p808
aVtimely
p809
aVelectricity
p810
aVmarket
p811
aVcoverage
p812
aVindustry
p813
aVwelcome
p814
aVfeedback
p815
aVimprove
p816
aVproduct
p817
aVdepartment
p818
aVreport
p819
aVtable
p820
aVregional
p821
aVprices
p822
aVmwh
p823
aVpre
p824
aVscheduled
p825
aVpackages
p826
aVexcluding
p827
aVtransmission
p828
aVcosts
p829
aVpeak
p830
aVchange
p831
aVlow
p832
aVhigh
p833
aVmid
p834
aVcolumbia
p835
aVca
p836
aVborder
p837
aVnp
p838
aVsp
p839
aVault
p840
aVcolorado
p841
aVmead
p842
aVpalo
p843
aVverde
p844
aVfour
p845
aVcorners
p846
aVcontinent
p847
aVecar
p848
aVeast
p849
aVaep
p850
aVcentral
p851
aVcinergy
p852
aVsouth
p853
aVnorth
p854
aVmain
p855
aVed
p856
aVlower
p857
aVmapp
p858
aVgulf
p859
aVspp
p860
aVnorthern
p861
aVercot
p862
aVserc
p863
aVva
p864
aVvacar
p865
aVtva
p866
aVentergy
p867
aVsouthern
p868
aVfla
p869
aVga
p870
aVfrcc
p871
aVnepool
p872
aVnew
p873
aVyork
p874
aVzone
p875
aVpjm
p876
aVseller
p877
aVchoice
p878
aVend
p879
aVwestern
p880
aVfall
p881
aVwarmer
p882
aVweather
p883
aVnatural
p884
aVgas
p885
aVloss
p886
aVlos
p887
aVangeles
p888
aVdec
p889
aVspot
p890
aVdeclined
p891
aVcombination
p892
aVacross
p893
aVregion
p894
aVdeclining
p895
aVaccording
p896
aVbelton
p897
aVmissouri
p898
aVbased
p899
aVderivatives
p900
aVinc
p901
aVtemperatures
p902
aVpacific
p903
aVnorthwest
p904
aVaverage
p905
aVdegrees
p906
aVfahrenheit
p907
aVnormal
p908
aVnext
p909
aVseven
p910
aVdays
p911
aVsouthwest
p912
aVdegree
p913
aVcalifornia
p914
aVoregon
p915
aVheavy
p916
aVload
p917
aVfell
p918
aVyesterday
p919
aVhappened
p920
aVbitter
p921
aVcold
p922
aVsupposed
p923
aVsaid
p924
aVone
p925
aVmarketer
p926
aVsince
p927
aVexpected
p928
aVdrastically
p929
aVrise
p930
aVweekend
p931
aVdelivered
p932
aVel
p933
aVpaso
p934
aVpipeline
p935
aVtraded
p936
aVcausing
p937
aVtrader
p938
aVdelivery
p939
aVpoint
p940
aVdecreased
p941
aVlight
p942
aVfalling
p943
aVpsc
p944
aVmexico
p945
aVmegawatt
p946
aVsan
p947
aVjuan
p948
aVunit
p949
aVcoal
p950
aVplant
p951
aVshut
p952
aVmorning
p953
aVtube
p954
aVleak
p955
aVrestart
p956
aVplunging
p957
aVrobert
p958
aVscalabrino
p959
aVdip
p960
aVphiladelphia
p961
aVday
p962
aVhub
p963
aVpennsylvania
p964
aVjersey
p965
aVmaryland
p966
aVamid
p967
aVforecasts
p968
aVtraders
p969
aVprice
p970
aVthursday
p971
aVhour
p972
aVtrades
p973
aVranging
p974
aVlexington
p975
aVmassachusetts
p976
aVservices
p977
aVcorp
p978
aVforecast
p979
aVtomorrow
p980
aVtemperature
p981
aVcould
p982
aVclimb
p983
aVfriday
p984
aVactivity
p985
aVtook
p986
aVplace
p987
aVearly
p988
aVpart
p989
aVoptions
p990
aVexpiration
p991
aVpretty
p992
aVmuch
p993
aVdried
p994
aVreason
p995
aVdecline
p996
aVfigures
p997
aVshow
p998
aVcity
p999
aVgate
p1000
aVper
p1001
aVmillion
p1002
aVbritish
p1003
aVthermal
p1004
aVunits
p1005
aVbtu
p1006
aVmonday
p1007
aVrevised
p1008
aVindicated
p1009
aVreduced
p1010
aVutility
p1011
aVrequirements
p1012
aVrose
p1013
aVutilities
p1014
aVwithheld
p1015
aVsupplies
p1016
aVnormally
p1017
aVwould
p1018
aVsold
p1019
aVfearing
p1020
aVsudden
p1021
aVforce
p1022
aVpriced
p1023
aVhourly
p1024
aVmarkets
p1025
aVhigher
p1026
aVrange
p1027
aVkaryn
p1028
aVrispoli
p1029
aVdrop
p1030
aVcincinnati
p1031
aVplunged
p1032
aVcontinued
p1033
aVsystem
p1034
aVdropped
p1035
aVopened
p1036
aVexpired
p1037
aVamerica
p1038
aVnetwork
p1039
aVtrading
p1040
aVchicago
p1041
aVcommonwealth
p1042
aVedison
p1043
aVco
p1044
aVgrid
p1045
aVpredicted
p1046
aVlevels
p1047
aVrespectively
p1048
aVpulled
p1049
aVlarge
p1050
aVfactor
p1051
aVrecent
p1052
aVsurges
p1053
aVreliance
p1054
aVfired
p1055
aVgeneration
p1056
aVmeet
p1057
aVincreased
p1058
aVrelated
p1059
aVdemand
p1060
aVcents
p1061
aVless
p1062
aVmoderating
p1063
aVve
p1064
aVgot
p1065
aVpeople
p1066
aVcoming
p1067
aVsenses
p1068
aVrealistic
p1069
aVoutlook
p1070
aVcontinues
p1071
aVmild
p1072
aVoffered
p1073
aVarea
p1074
aVpool
p1075
aVavailable
p1076
aVcapacity
p1077
aVselling
p1078
aVhappening
p1079
aVfirm
p1080
aVgetting
p1081
aVbuying
p1082
aVlucky
p1083
aVenough
p1084
aVget
p1085
aVpath
p1086
aVwaited
p1087
aVlater
p1088
aVcomed
p1089
aVbought
p1090
aVhuge
p1091
aVgap
p1092
aVtrade
p1093
aVken
p1094
aVfahnestock
p1095
aVsoutheast
p1096
aVslump
p1097
aVatlanta
p1098
aVgeorgia
p1099
aVslumped
p1100
aVweek
p1101
aVmany
p1102
aVpopulation
p1103
aVcenters
p1104
aVlike
p1105
aVsee
p1106
aVnothing
p1107
aVgoing
p1108
aVflorida
p1109
aVeverything
p1110
aVsupply
p1111
aVrouted
p1112
aVtennessee
p1113
aVvalley
p1114
aVauthority
p1115
aVstarted
p1116
aVcrumbled
p1117
aVcame
p1118
aVnoted
p1119
aVseveral
p1120
aVdollars
p1121
aVestimates
p1122
aVbalance
p1123
aVcaused
p1124
aVculprit
p1125
aVbehind
p1126
aVbacking
p1127
aVminus
p1128
aVwind
p1129
aVchill
p1130
aVplain
p1131
aVsections
p1132
aVthough
p1133
aVsank
p1134
aVbrian
p1135
aVwhary
p1136
aVahead
p1137
aVlondon
p1138
aVincrease
p1139
aVhousehold
p1140
aVconsumption
p1141
aVspace
p1142
aVheating
p1143
aVbaseload
p1144
aVpurchase
p1145
aVengland
p1146
aVwales
p1147
aVpounds
p1148
aVcelsius
p1149
aVforward
p1150
aVagreements
p1151
aVdealt
p1152
aVdecember
p1153
aVposition
p1154
aVclosing
p1155
aVprior
p1156
aVexpiry
p1157
aVbelief
p1158
aVsufficiently
p1159
aVjustify
p1160
aVwinter
p1161
aVefas
p1162
aVpence
p1163
aVlast
p1164
aVfirst
p1165
aVquarter
p1166
aVconstituent
p1167
aVmonths
p1168
aVline
p1169
aVexpectations
p1170
aVyear
p1171
aVcontinue
p1172
aVstifle
p1173
aVjanuary
p1174
aVprevious
p1175
aVclose
p1176
aVseason
p1177
aVstructures
p1178
aVexchange
p1179
aVsummer
p1180
aVunchanged
p1181
aVopen
p1182
aVpositions
p1183
aVshort
p1184
aVterm
p1185
aVlikely
p1186
aVdeal
p1187
aVactively
p1188
aVcontracts
p1189
aVrun
p1190
aVchristmas
p1191
aVadding
p1192
aVprobably
p1193
aVremain
p1194
aVilliquid
p1195
aVeasily
p1196
aVassessed
p1197
aVnick
p1198
aVlivingstone
p1199
aVnordic
p1200
aVfollowing
p1201
aVlysaker
p1202
aVnorway
p1203
aVnord
p1204
aVclosed
p1205
aVcolder
p1206
aVsparked
p1207
aVactive
p1208
aVnorwegian
p1209
aVkroner
p1210
aVmegawatts
p1211
aVvolume
p1212
aVhydro
p1213
aVproducers
p1214
aVrecede
p1215
aVprecipitation
p1216
aVscandinavia
p1217
aVtypically
p1218
aVgenerate
p1219
aVprevent
p1220
aVreservoirs
p1221
aVoverflowing
p1222
aVcurrently
p1223
aVunseasonably
p1224
aVbeginning
p1225
aVtypical
p1226
aVconditions
p1227
aVwaiting
p1228
aVlong
p1229
aVtime
p1230
aVstockholm
p1231
aVhasn
p1232
aVlived
p1233
aVnoticeable
p1234
aVparts
p1235
aVfreezing
p1236
aVlimited
p1237
aVchances
p1238
aVrain
p1239
aVpredict
p1240
aVbegin
p1241
aVpercent
p1242
aVdealers
p1243
aVanticipate
p1244
aVstart
p1245
aVshorter
p1246
aVdelayed
p1247
aVswedish
p1248
aVnuclear
p1249
aValthough
p1250
aVallow
p1251
aVabundant
p1252
aVvattenfall
p1253
aVringhals
p1254
aVreactor
p1255
aVdelay
p1256
aVleast
p1257
aVcompany
p1258
aVrapid
p1259
aVinduced
p1260
aVused
p1261
aVnews
p1262
aVgain
p1263
aVmomentum
p1264
aVfuture
p1265
aVincreases
p1266
aVbes
p1267
aVgmt
p1268
asV12
p1269
(lp1270
Vpm
p1271
aVliane
p1272
aVdiscussed
p1273
aVyesterday
p1274
aVconcerned
p1275
aVmay
p1276
aVattempt
p1277
aVmanipulate
p1278
aVel
p1279
aVpaso
p1280
aVsan
p1281
aVjuan
p1282
aVmonthly
p1283
aVindex
p1284
aVappears
p1285
aVsingle
p1286
aVbuyer
p1287
aVentered
p1288
aVmarketplace
p1289
aVseptember
p1290
aVpaid
p1291
aVmarket
p1292
aVprices
p1293
aVgas
p1294
aVtime
p1295
aVtrades
p1296
aVoffers
p1297
aVphysical
p1298
aVsignificantly
p1299
aVcents
p1300
aVlower
p1301
aVbypassed
p1302
aVorder
p1303
aVestablish
p1304
aVhigher
p1305
aVreport
p1306
aVcalculation
p1307
aVadditionally
p1308
aVline
p1309
aVassociated
p1310
aVfinancial
p1311
aVswaps
p1312
aVcompiled
p1313
aVlist
p1314
aVexecuted
p1315
aVcomplete
p1316
aVenron
p1317
aVonline
p1318
aVeol
p1319
aVdirect
p1320
aVphone
p1321
aVconversations
p1322
aVthree
p1323
aVbrokerage
p1324
aVfirms
p1325
aVamerex
p1326
aVapb
p1327
aVprebon
p1328
aVplease
p1329
aVsee
p1330
aVattached
p1331
aVspreadsheet
p1332
aVtrade
p1333
aVsummary
p1334
aValso
p1335
aVincluded
p1336
aVdaily
p1337
aVillustrate
p1338
aVvalue
p1339
aVbased
p1340
aVseveral
p1341
aVspread
p1342
aVrelationships
p1343
aVtwo
p1344
aVkey
p1345
aVpoints
p1346
aVdata
p1347
aVfollows
p1348
aVhigh
p1349
aVth
p1350
aVmuch
p1351
aVgreater
p1352
aVdays
p1353
aVrelationship
p1354
aVsocal
p1355
aVnorthwest
p1356
aVconsistent
p1357
aVend
p1358
aVoctober
p1359
aVdoesn
p1360
aVmake
p1361
aVsense
p1362
aVindices
p1363
aVdramatically
p1364
aVdifferent
p1365
aVunderstand
p1366
aVreview
p1367
aVsubmitted
p1368
aVoutliers
p1369
aVhopefully
p1370
aVreveal
p1371
aVcounterparty
p1372
aVnames
p1373
aVable
p1374
aVdetermine
p1375
aVone
p1376
aVwanted
p1377
aVgive
p1378
aVadditional
p1379
aVreference
p1380
aVaid
p1381
aVestablishing
p1382
aVreasonable
p1383
aVbelief
p1384
aVexcluded
p1385
aVdesire
p1386
aVreliable
p1387
aVaccurate
p1388
aVconduct
p1389
aVbusiness
p1390
aVcontact
p1391
aVanytime
p1392
aVassist
p1393
aVtowards
p1394
aVgoal
p1395
aVsincerely
p1396
aVphillip
p1397
aVallen
p1398
asV13
p1399
(lp1400
Vliane
p1401
aVdiscussed
p1402
aVyesterday
p1403
aVconcerned
p1404
aVattempt
p1405
aVmanipulate
p1406
aVel
p1407
aVpaso
p1408
aVsan
p1409
aVjuan
p1410
aVmonthly
p1411
aVindex
p1412
aVsingle
p1413
aVbuyer
p1414
aVentered
p1415
aVmarketplace
p1416
aVseptember
p1417
aVpaid
p1418
aVmarket
p1419
aVprices
p1420
aVgas
p1421
aVintent
p1422
aVdistort
p1423
aVtime
p1424
aVtrades
p1425
aVoffers
p1426
aVphysical
p1427
aVsignificantly
p1428
aVcents
p1429
aVlower
p1430
aVbypassed
p1431
aVorder
p1432
aVestablish
p1433
aVhigher
p1434
aVreport
p1435
aVcalculation
p1436
aVadditionally
p1437
aVline
p1438
aVassociated
p1439
aVfinancial
p1440
aVswaps
p1441
aVcompiled
p1442
aVlist
p1443
aVexecuted
p1444
aVcomplete
p1445
aVenron
p1446
aVonline
p1447
aVeol
p1448
aVdirect
p1449
aVphone
p1450
aVconversations
p1451
aVthree
p1452
aVbrokerage
p1453
aVfirms
p1454
aVamerex
p1455
aVapb
p1456
aVprebon
p1457
aVplease
p1458
aVsee
p1459
aVattached
p1460
aVspreadsheet
p1461
aVtrade
p1462
aVsummary
p1463
aValso
p1464
aVincluded
p1465
aVdaily
p1466
aVillustrate
p1467
aVvalue
p1468
aVbased
p1469
aVseveral
p1470
aVspread
p1471
aVrelationships
p1472
aVtwo
p1473
aVkey
p1474
aVpoints
p1475
aVdata
p1476
aVfollows
p1477
aVhigh
p1478
aVth
p1479
aVmuch
p1480
aVgreater
p1481
aVdays
p1482
aVrelationship
p1483
aVsocal
p1484
aVnorthwest
p1485
aVconsistent
p1486
aVend
p1487
aVoctober
p1488
aVdoesn
p1489
aVmake
p1490
aVsense
p1491
aVindeces
p1492
aVdramatically
p1493
aVdifferent
p1494
aVunderstand
p1495
aVreview
p1496
aVsubmitted
p1497
aVoutliers
p1498
aVhopefully
p1499
aVreveal
p1500
aVcounterparty
p1501
aVnames
p1502
aVable
p1503
aVdetermine
p1504
aVone
p1505
aVwanted
p1506
aVgive
p1507
aVadditional
p1508
aVreference
p1509
aVaid
p1510
aVestablishing
p1511
aVreasonable
p1512
aVbelief
p1513
aVexcluded
p1514
aVdesire
p1515
aVreliable
p1516
aVaccurate
p1517
aVconduct
p1518
aVbusiness
p1519
aVcontact
p1520
aVanytime
p1521
aVassist
p1522
aVtowards
p1523
aVgoal
p1524
aVsincerely
p1525
aVphillip
p1526
aVallen
p1527
asV14
p1528
(lp1529
Vpm
p1530
aVgeorge
p1531
aVrichards
p1532
aVplease
p1533
aVrespond
p1534
aVstructure
p1535
aVtypically
p1536
aVlimited
p1537
aVpartnership
p1538
aVcorporate
p1539
aVllc
p1540
aVgeneral
p1541
aVpartner
p1542
aVowns
p1543
aVproject
p1544
aVcarries
p1545
aVliability
p1546
aVconstruction
p1547
aVland
p1548
aVownership
p1549
aVloans
p1550
aVproperty
p1551
aVwould
p1552
aVpurchased
p1553
aVname
p1554
aVimprovements
p1555
aVindividual
p1556
aVinvestors
p1557
aVprincipals
p1558
aVcreekside
p1559
aValso
p1560
aVpersonally
p1561
aVguarantee
p1562
aVinvestor
p1563
aVsign
p1564
aVgenerally
p1565
aVmeans
p1566
aVlarger
p1567
aVamount
p1568
aVcash
p1569
aVrequired
p1570
aVshare
p1571
aVprofits
p1572
aVreduced
p1573
aVresidential
p1574
aVintended
p1575
aVre
p1576
aVsale
p1577
aVfull
p1578
aVrecourse
p1579
aVpursuing
p1580
aVmultifamily
p1581
aVrental
p1582
aVdevelopments
p1583
aVstill
p1584
aVmortgage
p1585
aVoften
p1586
aVnon
p1587
aVuse
p1588
aVinitial
p1589
aVinvestment
p1590
aVused
p1591
aVdeposit
p1592
aVengineering
p1593
aVarchitectural
p1594
aVdesign
p1595
aVsoils
p1596
aVtests
p1597
aVsurveys
p1598
aVfiling
p1599
aVfees
p1600
aVlegal
p1601
aVorganization
p1602
aVcondominium
p1603
aVassociation
p1604
aVformation
p1605
aVappraisals
p1606
aVunlike
p1607
aVmany
p1608
aVreal
p1609
aVestate
p1610
aVprograms
p1611
aVnone
p1612
aVfunds
p1613
aVbuilders
p1614
aVprofessional
p1615
aVexpenses
p1616
aVincurred
p1617
aVestimated
p1618
aVmonth
p1619
aVapproval
p1620
aVperiod
p1621
aVearly
p1622
aVcosts
p1623
aVper
p1624
aVlisted
p1625
aVflow
p1626
aVpart
p1627
aVcost
p1628
aVrepresent
p1629
aVextension
p1630
aVdue
p1631
aVseller
p1632
aVmonths
p1633
aVextensions
p1634
aVclosing
p1635
aValternative
p1636
aVclose
p1637
aVloan
p1638
aVprobably
p1639
aVappraised
p1640
aVvalue
p1641
aVequal
p1642
aVpurchase
p1643
aVprice
p1644
aVmean
p1645
aVmonthly
p1646
aVinterest
p1647
aVpayments
p1648
aVgiven
p1649
aVannual
p1650
aVrate
p1651
aVplus
p1652
aVapproximately
p1653
aVequity
p1654
aVimprovement
p1655
aVsite
p1656
aVplan
p1657
aVapproved
p1658
aVcity
p1659
aVaustin
p1660
aVrequire
p1661
aVdevelopment
p1662
aVentity
p1663
aVpost
p1664
aVfiscal
p1665
aVreferred
p1666
aVfiscals
p1667
aVrepresents
p1668
aVbond
p1669
aVcompletion
p1670
aVcoa
p1671
aVconsiders
p1672
aVvital
p1673
aVreleased
p1674
aVcompleted
p1675
aVaccepted
p1676
aVrelease
p1677
aVremaining
p1678
aVone
p1679
aVyear
p1680
aVreleases
p1681
aVgranted
p1682
aVevery
p1683
aVdays
p1684
aVexpect
p1685
aVoccur
p1686
aVstart
p1687
aVlot
p1688
aVusually
p1689
aVposted
p1690
aVirrevocable
p1691
aVletter
p1692
aVcredit
p1693
aVcounted
p1694
aVeven
p1695
aVthough
p1696
aVspent
p1697
aVcharged
p1698
aVfinished
p1699
aVsuspect
p1700
aVleast
p1701
aVpotentially
p1702
aVhigh
p1703
aVproduce
p1704
aVtotal
p1705
aVimproved
p1706
aVprior
p1707
aVobtaining
p1708
aVcount
p1709
aVtowards
p1710
aVrequirement
p1711
aVprovided
p1712
aVdirect
p1713
aVthus
p1714
aVadditional
p1715
aVmaximum
p1716
aVcover
p1717
aVunlikely
p1718
aVbank
p1719
aVallow
p1720
aVreimbursement
p1721
aVhigher
p1722
aVestimates
p1723
aVinvestments
p1724
aVshown
p1725
aVpreliminary
p1726
aVproforma
p1727
aVsafe
p1728
aVside
p1729
aVengineer
p1730
aVpreparing
p1731
aVtentative
p1732
aVlayout
p1733
aVevaluation
p1734
aVphasing
p1735
aVsignificantly
p1736
aVreduce
p1737
aVworks
p1738
aVfollows
p1739
aVfirst
p1740
aVphase
p1741
aVsay
p1742
aVunits
p1743
aVmight
p1744
aVaverage
p1745
aVlarge
p1746
aVtime
p1747
aVfront
p1748
aVentry
p1749
aVroad
p1750
aVwater
p1751
aVtreatment
p1752
aVperimeter
p1753
aVfencing
p1754
aVlandscaping
p1755
aVwell
p1756
aVundeveloped
p1757
aVlots
p1758
aVraw
p1759
aVestimate
p1760
aVgive
p1761
aVpresented
p1762
aVanalysis
p1763
aVdepended
p1764
aVcareful
p1765
aVassessment
p1766
aVcivil
p1767
aVseparate
p1768
aVphases
p1769
aVmust
p1770
aVable
p1771
aVstand
p1772
aVutility
p1773
aVstandpoint
p1774
aVthree
p1775
aVtypes
p1776
aVspeculative
p1777
aVspec
p1778
aVtaken
p1779
aVpre
p1780
aVsales
p1781
aVactivity
p1782
aVsecond
p1783
aVsold
p1784
aVunit
p1785
aVremains
p1786
aVbuilder
p1787
aVdevelopers
p1788
aVthird
p1789
aVbuyer
p1790
aVdeveloper
p1791
aVbuyers
p1792
aVdifficult
p1793
aVmanage
p1794
aVnew
p1795
aVunfamiliar
p1796
aVprocess
p1797
aVlender
p1798
aVdisbursements
p1799
aVhandled
p1800
aVcurrent
p1801
aVnear
p1802
aVterm
p1803
aVparty
p1804
aVnecessary
p1805
aVreserves
p1806
aVpriority
p1807
aVpartners
p1808
aVagreement
p1809
aVcontract
p1810
aVconstruct
p1811
aVfee
p1812
aVcb
p1813
aVinclude
p1814
aVmanagement
p1815
aVoverhead
p1816
aVhard
p1817
aVexcluding
p1818
aVfinancing
p1819
aVmonies
p1820
aVlarry
p1821
aVlewter
p1822
aVcalculation
p1823
aVprofit
p1824
aVexcept
p1825
aVpayment
p1826
aVsubcontractor
p1827
aVperform
p1828
aVexample
p1829
aVcannot
p1830
aVfind
p1831
aVgood
p1832
aVtrim
p1833
aVcarpenter
p1834
aVsub
p1835
aVenough
p1836
aVcarpenters
p1837
aVetc
p1838
aVdecides
p1839
aVundertake
p1840
aVfunction
p1841
aVcharge
p1842
aVobtain
p1843
aVparties
p1844
aVdisclose
p1845
aVcases
p1846
aVfinally
p1847
aVreceive
p1848
aVequipment
p1849
aVlieu
p1850
aVleasing
p1851
aVothers
p1852
aVpresent
p1853
aVsignificant
p1854
aVconsidering
p1855
aVsky
p1856
aVtrack
p1857
aVfacilitate
p1858
aVspeed
p1859
aVframing
p1860
aVcornice
p1861
aVroofing
p1862
aVdrywall
p1863
aVspreading
p1864
aVreporting
p1865
aVwilling
p1866
aVprovide
p1867
aVreports
p1868
aVvs
p1869
aVmind
p1870
aVlike
p1871
aVform
p1872
aVinternet
p1873
aVbased
p1874
aVbookkeeping
p1875
aVsure
p1876
aVreferring
p1877
aVquestion
p1878
aVprocedures
p1879
aVrecord
p1880
aVactual
p1881
aVexpand
p1882
aVinput
p1883
aVglad
p1884
aVmaterials
p1885
aValways
p1886
aVfinal
p1887
aVdisagreement
p1888
aVexperience
p1889
aVreach
p1890
aVconsensus
p1891
aVpresume
p1892
aVkeith
p1893
aVwant
p1894
aVinvolved
p1895
aVlearn
p1896
aVmuch
p1897
aVpossible
p1898
aVmake
p1899
aVeffort
p1900
aVaccommodating
p1901
aVproceedures
p1902
aVdealing
p1903
aVsubs
p1904
aVvendors
p1905
aVprofessionals
p1906
aVformal
p1907
aVindicates
p1908
aVextremely
p1909
aVtight
p1910
aVlabor
p1911
aVmarket
p1912
aVbids
p1913
aVtrade
p1914
aVfeasible
p1915
aVdeveloped
p1916
aVprevious
p1917
aVrapport
p1918
aVconstantly
p1919
aVshopped
p1920
aVselected
p1921
aVyes
p1922
aVdifferent
p1923
aVidentified
p1924
aVinterested
p1925
aVknow
p1926
aVanswered
p1927
aVeverything
p1928
aVstarting
p1929
aVpoint
p1930
aVcall
p1931
aVreviewed
p1932
aVdiscuss
p1933
aVsincerely
p1934
aVpresident
p1935
aVwinmail
p1936
aVdat
p1937
asV15
p1938
(lp1939
Vpm
p1940
aVgeorge
p1941
aVrichards
p1942
aVplease
p1943
aVrespond
p1944
aVstructure
p1945
aVtypically
p1946
aVlimited
p1947
aVpartnership
p1948
aVcorporate
p1949
aVllc
p1950
aVgeneral
p1951
aVpartner
p1952
aVowns
p1953
aVproject
p1954
aVcarries
p1955
aVliability
p1956
aVconstruction
p1957
aVland
p1958
aVownership
p1959
aVloans
p1960
aVproperty
p1961
aVwould
p1962
aVpurchased
p1963
aVname
p1964
aVimprovements
p1965
aVindividual
p1966
aVinvestors
p1967
aVprincipals
p1968
aVcreekside
p1969
aValso
p1970
aVpersonally
p1971
aVguarantee
p1972
aVinvestor
p1973
aVsign
p1974
aVgenerally
p1975
aVmeans
p1976
aVlarger
p1977
aVamount
p1978
aVcash
p1979
aVrequired
p1980
aVshare
p1981
aVprofits
p1982
aVreduced
p1983
aVresidential
p1984
aVintended
p1985
aVre
p1986
aVsale
p1987
aVfull
p1988
aVrecourse
p1989
aVpursuing
p1990
aVmultifamily
p1991
aVrental
p1992
aVdevelopments
p1993
aVstill
p1994
aVmortgage
p1995
aVoften
p1996
aVnon
p1997
aVuse
p1998
aVinitial
p1999
aVinvestment
p2000
aVused
p2001
aVdeposit
p2002
aVengineering
p2003
aVarchitectural
p2004
aVdesign
p2005
aVsoils
p2006
aVtests
p2007
aVsurveys
p2008
aVfiling
p2009
aVfees
p2010
aVlegal
p2011
aVorganization
p2012
aVcondominium
p2013
aVassociation
p2014
aVformation
p2015
aVappraisals
p2016
aVunlike
p2017
aVmany
p2018
aVreal
p2019
aVestate
p2020
aVprograms
p2021
aVnone
p2022
aVfunds
p2023
aVbuilders
p2024
aVprofessional
p2025
aVexpenses
p2026
aVincurred
p2027
aVestimated
p2028
aVmonth
p2029
aVapproval
p2030
aVperiod
p2031
aVearly
p2032
aVcosts
p2033
aVper
p2034
aVlisted
p2035
aVflow
p2036
aVpart
p2037
aVcost
p2038
aVrepresent
p2039
aVextension
p2040
aVdue
p2041
aVseller
p2042
aVmonths
p2043
aVextensions
p2044
aVclosing
p2045
aValternative
p2046
aVclose
p2047
aVloan
p2048
aVprobably
p2049
aVappraised
p2050
aVvalue
p2051
aVequal
p2052
aVpurchase
p2053
aVprice
p2054
aVmean
p2055
aVmonthly
p2056
aVinterest
p2057
aVpayments
p2058
aVgiven
p2059
aVannual
p2060
aVrate
p2061
aVplus
p2062
aVapproximately
p2063
aVequity
p2064
aVimprovement
p2065
aVsite
p2066
aVplan
p2067
aVapproved
p2068
aVcity
p2069
aVaustin
p2070
aVrequire
p2071
aVdevelopment
p2072
aVentity
p2073
aVpost
p2074
aVfiscal
p2075
aVreferred
p2076
aVfiscals
p2077
aVrepresents
p2078
aVbond
p2079
aVcompletion
p2080
aVcoa
p2081
aVconsiders
p2082
aVvital
p2083
aVreleased
p2084
aVcompleted
p2085
aVaccepted
p2086
aVrelease
p2087
aVremaining
p2088
aVone
p2089
aVyear
p2090
aVreleases
p2091
aVgranted
p2092
aVevery
p2093
aVdays
p2094
aVexpect
p2095
aVoccur
p2096
aVstart
p2097
aVlot
p2098
aVusually
p2099
aVposted
p2100
aVirrevocable
p2101
aVletter
p2102
aVcredit
p2103
aVcounted
p2104
aVeven
p2105
aVthough
p2106
aVspent
p2107
aVcharged
p2108
aVfinished
p2109
aVsuspect
p2110
aVleast
p2111
aVpotentially
p2112
aVhigh
p2113
aVproduce
p2114
aVtotal
p2115
aVimproved
p2116
aVprior
p2117
aVobtaining
p2118
aVcount
p2119
aVtowards
p2120
aVrequirement
p2121
aVprovided
p2122
aVdirect
p2123
aVthus
p2124
aVadditional
p2125
aVmaximum
p2126
aVcover
p2127
aVunlikely
p2128
aVbank
p2129
aVallow
p2130
aVreimbursement
p2131
aVhigher
p2132
aVestimates
p2133
aVinvestments
p2134
aVshown
p2135
aVpreliminary
p2136
aVproforma
p2137
aVsafe
p2138
aVside
p2139
aVengineer
p2140
aVpreparing
p2141
aVtentative
p2142
aVlayout
p2143
aVevaluation
p2144
aVphasing
p2145
aVsignificantly
p2146
aVreduce
p2147
aVworks
p2148
aVfollows
p2149
aVfirst
p2150
aVphase
p2151
aVsay
p2152
aVunits
p2153
aVmight
p2154
aVaverage
p2155
aVlarge
p2156
aVtime
p2157
aVfront
p2158
aVentry
p2159
aVroad
p2160
aVwater
p2161
aVtreatment
p2162
aVperimeter
p2163
aVfencing
p2164
aVlandscaping
p2165
aVwell
p2166
aVundeveloped
p2167
aVlots
p2168
aVraw
p2169
aVestimate
p2170
aVgive
p2171
aVpresented
p2172
aVanalysis
p2173
aVdepended
p2174
aVcareful
p2175
aVassessment
p2176
aVcivil
p2177
aVseparate
p2178
aVphases
p2179
aVmust
p2180
aVable
p2181
aVstand
p2182
aVutility
p2183
aVstandpoint
p2184
aVthree
p2185
aVtypes
p2186
aVspeculative
p2187
aVspec
p2188
aVtaken
p2189
aVpre
p2190
aVsales
p2191
aVactivity
p2192
aVsecond
p2193
aVsold
p2194
aVunit
p2195
aVremains
p2196
aVbuilder
p2197
aVdevelopers
p2198
aVthird
p2199
aVbuyer
p2200
aVdeveloper
p2201
aVbuyers
p2202
aVdifficult
p2203
aVmanage
p2204
aVnew
p2205
aVunfamiliar
p2206
aVprocess
p2207
aVlender
p2208
aVdisbursements
p2209
aVhandled
p2210
aVcurrent
p2211
aVnear
p2212
aVterm
p2213
aVparty
p2214
aVnecessary
p2215
aVreserves
p2216
aVpriority
p2217
aVpartners
p2218
aVagreement
p2219
aVcontract
p2220
aVconstruct
p2221
aVfee
p2222
aVcb
p2223
aVinclude
p2224
aVmanagement
p2225
aVoverhead
p2226
aVhard
p2227
aVexcluding
p2228
aVfinancing
p2229
aVmonies
p2230
aVlarry
p2231
aVlewter
p2232
aVcalculation
p2233
aVprofit
p2234
aVexcept
p2235
aVpayment
p2236
aVsubcontractor
p2237
aVperform
p2238
aVexample
p2239
aVcannot
p2240
aVfind
p2241
aVgood
p2242
aVtrim
p2243
aVcarpenter
p2244
aVsub
p2245
aVenough
p2246
aVcarpenters
p2247
aVetc
p2248
aVdecides
p2249
aVundertake
p2250
aVfunction
p2251
aVcharge
p2252
aVobtain
p2253
aVparties
p2254
aVdisclose
p2255
aVcases
p2256
aVfinally
p2257
aVreceive
p2258
aVequipment
p2259
aVlieu
p2260
aVleasing
p2261
aVothers
p2262
aVpresent
p2263
aVsignificant
p2264
aVconsidering
p2265
aVsky
p2266
aVtrack
p2267
aVfacilitate
p2268
aVspeed
p2269
aVframing
p2270
aVcornice
p2271
aVroofing
p2272
aVdrywall
p2273
aVspreading
p2274
aVreporting
p2275
aVwilling
p2276
aVprovide
p2277
aVreports
p2278
aVvs
p2279
aVmind
p2280
aVlike
p2281
aVform
p2282
aVinternet
p2283
aVbased
p2284
aVbookkeeping
p2285
aVsure
p2286
aVreferring
p2287
aVquestion
p2288
aVprocedures
p2289
aVrecord
p2290
aVactual
p2291
aVexpand
p2292
aVinput
p2293
aVglad
p2294
aVmaterials
p2295
aValways
p2296
aVfinal
p2297
aVdisagreement
p2298
aVexperience
p2299
aVreach
p2300
aVconsensus
p2301
aVpresume
p2302
aVkeith
p2303
aVwant
p2304
aVinvolved
p2305
aVlearn
p2306
aVmuch
p2307
aVpossible
p2308
aVmake
p2309
aVeffort
p2310
aVaccommodating
p2311
aVproceedures
p2312
aVdealing
p2313
aVsubs
p2314
aVvendors
p2315
aVprofessionals
p2316
aVformal
p2317
aVindicates
p2318
aVextremely
p2319
aVtight
p2320
aVlabor
p2321
aVmarket
p2322
aVbids
p2323
aVtrade
p2324
aVfeasible
p2325
aVdeveloped
p2326
aVprevious
p2327
aVrapport
p2328
aVconstantly
p2329
aVshopped
p2330
aVselected
p2331
aVyes
p2332
aVdifferent
p2333
aVidentified
p2334
aVinterested
p2335
aVknow
p2336
aVanswered
p2337
aVeverything
p2338
aVstarting
p2339
aVpoint
p2340
aVcall
p2341
aVreviewed
p2342
aVdiscuss
p2343
aVsincerely
p2344
aVpresident
p2345
aVwinmail
p2346
aVdat
p2347
asV16
p2348
(lp2349
Vpm
p2350
aVreschedule
p2351
aVchairperson
p2352
aVrichard
p2353
aVburchfield
p2354
aVsent
p2355
aVcindy
p2356
aVcicchetti
p2357
aVstart
p2358
aVend
p2359
aVdescription
p2360
aVgas
p2361
aVphysical
p2362
aVfinancail
p2363
aVpositions
p2364
aVroom
p2365
aVmeeting
p2366
aVrepeats
p2367
aVstarting
p2368
aVdate
p2369
aVoccurs
p2370
aVweekend
p2371
aVdates
p2372
aVfletcher
p2373
aVsturm
p2374
aVhou
p2375
aVect
p2376
aVscott
p2377
aVneal
p2378
aVhunter
p2379
aVshively
p2380
aVphillip
p2381
aVallen
p2382
aVallan
p2383
aVseverude
p2384
aVmills
p2385
aVruss
p2386
aVseverson
p2387
aVdetailed
p2388
aVconfirmation
p2389
aVstatus
p2390
aVupdate
p2391
aVresponse
p2392
aVaccepted
p2393
aVtrading
p2394
aVvision
p2395
aVeb
p2396
aVjeffrey
p2397
aVcolleen
p2398
aVjayant
p2399
aVrussell
p2400
aVgossett
p2401
aVsullivan
p2402
aVkrishnaswamy
p2403
aVlong
p2404
aVmoved
p2405
aVwed
p2406
aVvia
p2407
aVlotus
p2408
aVnotes
p2409
aVsorry
p2410
aVchanges
p2411
aVscheduling
p2412
aVproblem
p2413
aVcouple
p2414
aVpeople
p2415
aVoriginal
p2416
aVtime
p2417
aVslot
p2418
asV17
p2419
(lp2420
Vnymex
p2421
aVexpiration
p2422
aVtime
p2423
aVframe
p2424
aVplease
p2425
aVreschedule
p2426
asV18
p2427
(lp2428
Vpm
p2429
aVinvitation
p2430
aVchairperson
p2431
aVrichard
p2432
aVburchfield
p2433
aVsent
p2434
aVcindy
p2435
aVcicchetti
p2436
aVstart
p2437
aVend
p2438
aVdescription
p2439
aVgas
p2440
aVtrading
p2441
aVvision
p2442
aVmeeting
p2443
aVroom
p2444
aVeb
p2445
aVrepeats
p2446
aVstarting
p2447
aVdate
p2448
aVoccurs
p2449
aVweekend
p2450
aVdates
p2451
aVphillip
p2452
aVallen
p2453
aVhou
p2454
aVect
p2455
aVhunter
p2456
aVshively
p2457
aVscott
p2458
aVmills
p2459
aVallan
p2460
aVseverude
p2461
aVjeffrey
p2462
aVgossett
p2463
aVcolleen
p2464
aVsullivan
p2465
aVruss
p2466
aVseverson
p2467
aVjayant
p2468
aVkrishnaswamy
p2469
aVrussell
p2470
aVlong
p2471
aVdetailed
p2472
asV19
p2473
(lp2474
Vpm
p2475
aVallan
p2476
aVruss
p2477
aVfletcher
p2478
aVscott
p2479
aVscheduled
p2480
aVentered
p2481
aVcalendars
p2482
aVmeeting
p2483
aVreferenced
p2484
aVtopic
p2485
aVtake
p2486
aVplace
p2487
aVthursday
p2488
aVroom
p2489
aVeb
p2490
asV20
p2491
(lp2492
Vbs
p2493
aVstone
p2494
aVjeff
p2495
aVclosing
p2496
aVtoday
p2497
aVreviewing
p2498
aVagreement
p2499
aVfind
p2500
aVisn
p2501
aVbinding
p2502
aVfar
p2503
aVdetermine
p2504
aVvague
p2505
aVdoesn
p2506
aVsound
p2507
aVlike
p2508
aVanything
p2509
aVattorney
p2510
aVtitle
p2511
aVcompany
p2512
aVwould
p2513
aVdraft
p2514
aVreal
p2515
aVestate
p2516
aVcourse
p2517
aVcould
p2518
aVwrong
p2519
aVgoing
p2520
aVtake
p2521
aVplace
p2522
aVwithout
p2523
aVpoint
p2524
aVfollowing
p2525
aVdocument
p2526
aVvalidity
p2527
aVneed
p2528
aVgo
p2529
aVback
p2530
aVdocuments
p2531
aVsee
p2532
aVdeal
p2533
aVbest
p2534
aVguess
p2535
aVexpecting
p2536
aVsomething
p2537
aVexhibit
p2538
aVrecordable
p2539
aVlittle
p2540
aVexact
p2541
aVrather
p2542
aVsort
p2543
aVcontract
p2544
aVeither
p2545
aVtried
p2546
aVget
p2547
aVatty
p2548
aVphone
p2549
aVlast
p2550
aVnight
p2551
aVpocket
p2552
aVtalked
p2553
aVcrim
p2554
aVfriend
p2555
aVsaid
p2556
aVarea
p2557
aVmine
p2558
aVphillip
p2559
aVallen
p2560
aVtransaction
p2561
aVlook
p2562
aVgeneral
p2563
aVdoubt
p2564
aVsignature
p2565
aVeven
p2566
aVneeded
p2567
aVcomplete
p2568
aVnoon
p2569
aVcontact
p2570
aVregarding
p2571
aVreally
p2572
aVwant
p2573
aVhold
p2574
aVgenerate
p2575
aVwork
p2576
aVinsult
p2577
aVannoy
p2578
aVanyone
p2579
aVpaper
p2580
aVseem
p2581
aVrequired
p2582
aVevent
p2583
aVtime
p2584
aVreviewed
p2585
aVaccept
p2586
aVbrenda
p2587
as.